; Function Attrs: nounwind sspstrong uwtable
define dso_local void @ahci_reset(ptr noundef %0) local_unnamed_addr #0 {
  %2 = alloca %struct.timeval, align 8
  %3 = load i32, ptr @trace_events_enabled_count, align 4
  %.not.i.i = icmp eq i32 %3, 0
  br i1 %.not.i.i, label %trace_ahci_reset.exit, label %4, !prof !7

4:                                                ; preds = %1
  %5 = load i16, ptr @_TRACE_AHCI_RESET_DSTATE, align 2
  %.not2.i.i = icmp eq i16 %5, 0
  br i1 %.not2.i.i, label %trace_ahci_reset.exit, label %6

6:                                                ; preds = %4
  %7 = load i32, ptr @qemu_loglevel, align 4
  %8 = and i32 %7, 32768
  %.not3.i.i = icmp eq i32 %8, 0
  br i1 %.not3.i.i, label %trace_ahci_reset.exit, label %9

9:                                                ; preds = %6
  %10 = load i8, ptr @message_with_timestamp, align 1, !range !9, !noundef !10
  %11 = trunc nuw i8 %10 to i1
  br i1 %11, label %12, label %18

12:                                               ; preds = %9
  call void @llvm.lifetime.start.p0(i64 16, ptr nonnull %2) #14
  call void @llvm.memset.p0.i64(ptr noundef nonnull align 8 dereferenceable(16) %2, i8 0, i64 16, i1 false), !annotation !11
  %13 = call i32 @gettimeofday(ptr noundef nonnull %2, ptr noundef null) #14
  %14 = tail call i32 @qemu_get_thread_id() #14
  %15 = load i64, ptr %2, align 8
  %16 = getelementptr inbounds nuw i8, ptr %2, i64 8
  %17 = load i64, ptr %16, align 8
  tail call void (ptr, ...) @qemu_log(ptr noundef nonnull @.str.191, i32 noundef %14, i64 noundef %15, i64 noundef %17, ptr noundef %0) #14
  call void @llvm.lifetime.end.p0(i64 16, ptr nonnull %2) #14
  br label %trace_ahci_reset.exit

18:                                               ; preds = %9
  tail call void (ptr, ...) @qemu_log(ptr noundef nonnull @.str.192, ptr noundef %0) #14
  br label %trace_ahci_reset.exit

trace_ahci_reset.exit:                            ; preds = %1, %4, %6, %12, %18
  %19 = getelementptr inbounds nuw i8, ptr %0, i64 16
  store i32 0, ptr %19, align 8
  %20 = getelementptr inbounds nuw i8, ptr %0, i64 12
  store i32 -2147483648, ptr %20, align 4
  %21 = getelementptr inbounds nuw i8, ptr %0, i64 584
  %22 = load i32, ptr %21, align 8
  %.not = icmp eq i32 %22, 0
  br i1 %.not, label %._crit_edge, label %.lr.ph

.lr.ph:                                           ; preds = %trace_ahci_reset.exit, %.lr.ph
  %.013 = phi i32 [ %30, %.lr.ph ], [ 0, %trace_ahci_reset.exit ]
  %23 = load ptr, ptr %0, align 16
  %24 = sext i32 %.013 to i64
  %25 = getelementptr inbounds %struct.AHCIDevice, ptr %23, i64 %24, i32 5
  %26 = getelementptr inbounds nuw i8, ptr %25, i64 16
  store i32 0, ptr %26, align 4
  %27 = getelementptr inbounds nuw i8, ptr %25, i64 20
  store i32 0, ptr %27, align 4
  %28 = getelementptr inbounds nuw i8, ptr %25, i64 44
  store i32 0, ptr %28, align 4
  %29 = getelementptr inbounds nuw i8, ptr %25, i64 24
  store i32 6, ptr %29, align 4
  tail call fastcc void @ahci_reset_port(ptr noundef nonnull %0, i32 noundef %.013)
  %30 = add nuw i32 %.013, 1
  %31 = load i32, ptr %21, align 8
  %32 = icmp ult i32 %30, %31
  br i1 %32, label %.lr.ph, label %._crit_edge, !llvm.loop !12

._crit_edge:                                      ; preds = %.lr.ph, %trace_ahci_reset.exit
  ret void
}